target datalayout = "e-m:e-p270:32:32-p271:32:32-p272:64:64-i64:64-i128:128-f80:128-n8:16:32:64-S128"
target triple = "x86_64-pc-linux-gnu"

%union.pthread_mutex_t = type { %struct.__pthread_mutex_s }
%struct.__pthread_mutex_s = type { i32, i32, i32, i32, i32, i16, i16, %struct.__pthread_internal_list }
%struct.__pthread_internal_list = type { ptr, ptr }

@inited = internal global i8 0, align 1
@acct_gather_options_buf = internal global ptr null, align 8
@conf_mutex = internal global %union.pthread_mutex_t zeroinitializer, align 8
@.str.13 = private unnamed_addr constant [32 x i8] c"%s: pthread_mutex_destroy(): %m\00", align 1
@__func__.acct_gather_conf_destroy = private unnamed_addr constant [25 x i8] c"acct_gather_conf_destroy\00", align 1

; Function Attrs: nounwind uwtable
define dso_local i32 @acct_gather_conf_destroy() #0 {
  %1 = alloca i32, align 4
  %2 = alloca i32, align 4
  %3 = alloca i32, align 4
  %4 = alloca i32, align 4
  call void @llvm.lifetime.start.p0(i64 4, ptr %2) #6
  store i32 0, ptr %2, align 4
  %5 = load i8, ptr @inited, align 1, !range !8, !noundef !9
  %6 = trunc i8 %5 to i1
  br i1 %6, label %8, label %7

7:                                                ; preds = %0
  store i32 0, ptr %1, align 4
  store i32 1, ptr %3, align 4
  br label %44

8:                                                ; preds = %0
  store i8 0, ptr @inited, align 1
  %9 = call i32 @acct_gather_energy_fini()
  %10 = icmp ne i32 %9, 0
  br i1 %10, label %11, label %12

11:                                               ; preds = %8
  store i32 -1, ptr %2, align 4
  br label %12

12:                                               ; preds = %11, %8
  %13 = call i32 @acct_gather_filesystem_fini()
  %14 = icmp ne i32 %13, 0
  br i1 %14, label %15, label %16

15:                                               ; preds = %12
  store i32 -1, ptr %2, align 4
  br label %16

16:                                               ; preds = %15, %12
  %17 = call i32 @acct_gather_interconnect_fini()
  %18 = icmp ne i32 %17, 0
  br i1 %18, label %19, label %20

19:                                               ; preds = %16
  store i32 -1, ptr %2, align 4
  br label %20

20:                                               ; preds = %19, %16
  %21 = call i32 @acct_gather_profile_fini()
  %22 = icmp ne i32 %21, 0
  br i1 %22, label %23, label %24

23:                                               ; preds = %20
  store i32 -1, ptr %2, align 4
  br label %24

24:                                               ; preds = %23, %20
  br label %25

25:                                               ; preds = %24
  %26 = load ptr, ptr @acct_gather_options_buf, align 8
  %27 = icmp ne ptr %26, null
  br i1 %27, label %28, label %30

28:                                               ; preds = %25
  %29 = load ptr, ptr @acct_gather_options_buf, align 8
  call void @free_buf(ptr noundef %29)
  br label %30

30:                                               ; preds = %28, %25
  store ptr null, ptr @acct_gather_options_buf, align 8
  br label %31

31:                                               ; preds = %30
  br label %32

32:                                               ; preds = %31
  br label %33

33:                                               ; preds = %32
  call void @llvm.lifetime.start.p0(i64 4, ptr %4) #6
  %34 = call i32 @pthread_mutex_destroy(ptr noundef @conf_mutex) #6
  store i32 %34, ptr %4, align 4
  %35 = load i32, ptr %4, align 4
  %36 = icmp ne i32 %35, 0
  br i1 %36, label %37, label %40

37:                                               ; preds = %33
  %38 = load i32, ptr %4, align 4
  %39 = call ptr @__errno_location() #8
  store i32 %38, ptr %39, align 4
  call void (ptr, ...) @fatal_abort(ptr noundef @.str.13, ptr noundef @__func__.acct_gather_conf_destroy) #7
  unreachable

40:                                               ; preds = %33
  call void @llvm.lifetime.end.p0(i64 4, ptr %4) #6
  br label %41

41:                                               ; preds = %40
  br label %42

42:                                               ; preds = %41
  %43 = load i32, ptr %2, align 4
  store i32 %43, ptr %1, align 4
  store i32 1, ptr %3, align 4
  br label %44

44:                                               ; preds = %42, %7
  call void @llvm.lifetime.end.p0(i64 4, ptr %2) #6
  %45 = load i32, ptr %1, align 4
  ret i32 %45
}