; Function Attrs: nounwind uwtable
define dso_local range(i32 -1, 1) i32 @acct_gather_conf_destroy() local_unnamed_addr #0 {
  %.b7 = load i1, ptr @inited, align 1
  br i1 %.b7, label %1, label %14

1:                                                ; preds = %0
  store i1 false, ptr @inited, align 1
  %2 = tail call i32 @acct_gather_energy_fini() #9
  %.not = icmp ne i32 %2, 0
  %3 = tail call i32 @acct_gather_filesystem_fini() #9
  %.not8 = icmp ne i32 %3, 0
  %4 = tail call i32 @acct_gather_interconnect_fini() #9
  %.not9 = icmp ne i32 %4, 0
  %5 = tail call i32 @acct_gather_profile_fini() #9
  %.not10 = icmp ne i32 %5, 0
  %6 = select i1 %.not10, i1 true, i1 %.not9
  %7 = select i1 %6, i1 true, i1 %.not8
  %narrow = select i1 %7, i1 true, i1 %.not
  %.3 = sext i1 %narrow to i32
  %8 = load ptr, ptr @acct_gather_options_buf, align 8
  %.not11 = icmp eq ptr %8, null
  br i1 %.not11, label %10, label %9

9:                                                ; preds = %1
  tail call void @free_buf(ptr noundef nonnull %8) #9
  br label %10

10:                                               ; preds = %9, %1
  store ptr null, ptr @acct_gather_options_buf, align 8
  %11 = tail call i32 @pthread_mutex_destroy(ptr noundef nonnull @conf_mutex) #9
  %.not12 = icmp eq i32 %11, 0
  br i1 %.not12, label %14, label %12

12:                                               ; preds = %10
  %13 = tail call ptr @__errno_location() #11
  store i32 %11, ptr %13, align 4
  tail call void (ptr, ...) @fatal_abort(ptr noundef nonnull @.str.13, ptr noundef nonnull @__func__.acct_gather_conf_destroy) #10
  unreachable

14:                                               ; preds = %10, %0
  %.0 = phi i32 [ 0, %0 ], [ %.3, %10 ]
  ret i32 %.0
}